ARM GAS  C:\Users\DELL\AppData\Local\Temp\ccKNQBQ1.s 			page 1


   1              		.syntax unified
   2              		.cpu cortex-m3
   3              		.fpu softvfp
   4              		.eabi_attribute 20, 1
   5              		.eabi_attribute 21, 1
   6              		.eabi_attribute 23, 3
   7              		.eabi_attribute 24, 1
   8              		.eabi_attribute 25, 1
   9              		.eabi_attribute 26, 1
  10              		.eabi_attribute 30, 1
  11              		.eabi_attribute 34, 1
  12              		.eabi_attribute 18, 4
  13              		.thumb
  14              		.syntax unified
  15              		.file	"sd.c"
  16              		.text
  17              	.Ltext0:
  18              		.cfi_sections	.debug_frame
  19              		.section	.text.sd_open_one_case,"ax",%progbits
  20              		.align	2
  21              		.global	sd_open_one_case
  22              		.thumb
  23              		.thumb_func
  24              		.type	sd_open_one_case, %function
  25              	sd_open_one_case:
  26              	.LFB64:
  27              		.file 1 "sd.c"
   1:sd.c          **** /* ========================================
   2:sd.c          ****  *
   3:sd.c          ****  * Copyright YOUR COMPANY, THE YEAR
   4:sd.c          ****  * All Rights Reserved
   5:sd.c          ****  * UNPUBLISHED, LICENSED SOFTWARE.
   6:sd.c          ****  *
   7:sd.c          ****  * CONFIDENTIAL AND PROPRIETARY INFORMATION
   8:sd.c          ****  * WHICH IS THE PROPERTY OF your company.
   9:sd.c          ****  *
  10:sd.c          ****  * ========================================
  11:sd.c          **** */
  12:sd.c          **** #include <project.h>
  13:sd.c          **** #include <sd.h>
  14:sd.c          **** #include <stdio.h>
  15:sd.c          **** #include <main.h>
  16:sd.c          **** //#include <UART.h>
  17:sd.c          **** 
  18:sd.c          **** 
  19:sd.c          **** //Ê≠§ÊÆµ‰ª£Á†ÅËæìÂÖ•ÁöÑÁ±ªÂûãÂè™ËÉΩ‰∏∫int
  20:sd.c          **** /*
  21:sd.c          **** void sd_Control_from_PC( uint8 index ){                        //Âè™ËÉΩÊâìÂºÄ0-18ÂÖ∂‰∏≠‰∏Ä‰∏™ÁÆ±‰Ωì
  22:sd.c          ****     
  23:sd.c          ****     if( (index==1) || (index==2) ){
  24:sd.c          ****         if( (Switch_1_2_Control_Read()& CASE_TWO_MASK) != CLOSE_ONE_CASE<<(index-1) ){
  25:sd.c          ****             Switch_1_2_Control_Write(((CLOSE_ONE_CASE << (index - 1)) & CASE_TWO_MASK) );
  26:sd.c          ****         }
  27:sd.c          ****         Switch_3_10_Control_Write(OPEN_ALL_CASE);
  28:sd.c          ****         Switch_11_12_Control_Write(OPEN_ALL_CASE);
  29:sd.c          ****         Switch_13_14_Control_Write(OPEN_ALL_CASE);
  30:sd.c          ****         Switch_15_Control_Write(OPEN_ALL_CASE);
ARM GAS  C:\Users\DELL\AppData\Local\Temp\ccKNQBQ1.s 			page 2


  31:sd.c          ****         Switch_16_Control_Write(OPEN_ALL_CASE);
  32:sd.c          ****         Switch_17_Control_Write(OPEN_ALL_CASE);
  33:sd.c          ****         Switch_18_Control_Write(OPEN_ALL_CASE);
  34:sd.c          ****     }
  35:sd.c          ****     else if( (index==11) || (index==12) ){
  36:sd.c          ****         if( (Switch_11_12_Control_Read()& CASE_TWO_MASK) != CLOSE_ONE_CASE<<(index-11) ){
  37:sd.c          ****             Switch_11_12_Control_Write(((CLOSE_ONE_CASE << (index - 11)) & CASE_TWO_MASK) );
  38:sd.c          ****         }
  39:sd.c          ****         Switch_1_2_Control_Write(OPEN_ALL_CASE);
  40:sd.c          ****         Switch_3_10_Control_Write(OPEN_ALL_CASE);
  41:sd.c          ****         Switch_13_14_Control_Write(OPEN_ALL_CASE);
  42:sd.c          ****         Switch_15_Control_Write(OPEN_ALL_CASE);
  43:sd.c          ****         Switch_16_Control_Write(OPEN_ALL_CASE);
  44:sd.c          ****         Switch_17_Control_Write(OPEN_ALL_CASE);
  45:sd.c          ****         Switch_18_Control_Write(OPEN_ALL_CASE);
  46:sd.c          ****     }
  47:sd.c          ****     else if( (index==13) || (index==14) ){
  48:sd.c          ****         if( (Switch_13_14_Control_Read()& CASE_TWO_MASK) != CLOSE_ONE_CASE<<(index-13) ){
  49:sd.c          ****             Switch_13_14_Control_Write(((CLOSE_ONE_CASE << (index - 13)) & CASE_TWO_MASK) );
  50:sd.c          ****         }
  51:sd.c          ****         Switch_1_2_Control_Write(OPEN_ALL_CASE);
  52:sd.c          ****         Switch_3_10_Control_Write(OPEN_ALL_CASE);
  53:sd.c          ****         Switch_11_12_Control_Write(OPEN_ALL_CASE);
  54:sd.c          ****         Switch_15_Control_Write(OPEN_ALL_CASE);
  55:sd.c          ****         Switch_16_Control_Write(OPEN_ALL_CASE);
  56:sd.c          ****         Switch_17_Control_Write(OPEN_ALL_CASE);
  57:sd.c          ****         Switch_18_Control_Write(OPEN_ALL_CASE);
  58:sd.c          ****     }
  59:sd.c          ****     else if( index==15 ){
  60:sd.c          ****         
  61:sd.c          ****         Switch_1_2_Control_Write(OPEN_ALL_CASE);
  62:sd.c          ****         Switch_3_10_Control_Write(OPEN_ALL_CASE);
  63:sd.c          ****         Switch_11_12_Control_Write(OPEN_ALL_CASE);
  64:sd.c          ****         Switch_13_14_Control_Write(OPEN_ALL_CASE);
  65:sd.c          ****         Switch_15_Control_Write(CLOSE_ONE_CASE);
  66:sd.c          ****         Switch_16_Control_Write(OPEN_ALL_CASE);
  67:sd.c          ****         Switch_17_Control_Write(OPEN_ALL_CASE);
  68:sd.c          ****         Switch_18_Control_Write(OPEN_ALL_CASE);
  69:sd.c          ****     }
  70:sd.c          ****      else if( index==16 ){
  71:sd.c          ****         
  72:sd.c          ****         Switch_1_2_Control_Write(OPEN_ALL_CASE);
  73:sd.c          ****         Switch_3_10_Control_Write(OPEN_ALL_CASE);
  74:sd.c          ****         Switch_11_12_Control_Write(OPEN_ALL_CASE);
  75:sd.c          ****         Switch_13_14_Control_Write(OPEN_ALL_CASE);
  76:sd.c          ****         Switch_15_Control_Write(OPEN_ALL_CASE);
  77:sd.c          ****         Switch_16_Control_Write(CLOSE_ONE_CASE);
  78:sd.c          ****         Switch_17_Control_Write(OPEN_ALL_CASE);
  79:sd.c          ****         Switch_18_Control_Write(OPEN_ALL_CASE);
  80:sd.c          ****     }
  81:sd.c          ****     else if( index==17 ){
  82:sd.c          ****         
  83:sd.c          ****         Switch_3_10_Control_Write(OPEN_ALL_CASE);
  84:sd.c          ****         Switch_1_2_Control_Write(OPEN_ALL_CASE);
  85:sd.c          ****         Switch_11_12_Control_Write(OPEN_ALL_CASE);
  86:sd.c          ****         Switch_13_14_Control_Write(OPEN_ALL_CASE);
  87:sd.c          ****         Switch_15_Control_Write(OPEN_ALL_CASE);
ARM GAS  C:\Users\DELL\AppData\Local\Temp\ccKNQBQ1.s 			page 3


  88:sd.c          ****         Switch_16_Control_Write(OPEN_ALL_CASE);
  89:sd.c          ****         Switch_17_Control_Write(CLOSE_ONE_CASE);
  90:sd.c          ****         Switch_18_Control_Write(OPEN_ALL_CASE);
  91:sd.c          ****         
  92:sd.c          ****     }
  93:sd.c          ****     else if( index==18 ){
  94:sd.c          ****         
  95:sd.c          ****         Switch_3_10_Control_Write(OPEN_ALL_CASE);
  96:sd.c          ****         Switch_1_2_Control_Write(OPEN_ALL_CASE);
  97:sd.c          ****         Switch_11_12_Control_Write(OPEN_ALL_CASE);
  98:sd.c          ****         Switch_13_14_Control_Write(OPEN_ALL_CASE);
  99:sd.c          ****         Switch_15_Control_Write(OPEN_ALL_CASE);
 100:sd.c          ****         Switch_16_Control_Write(OPEN_ALL_CASE);
 101:sd.c          ****         Switch_17_Control_Write(OPEN_ALL_CASE);
 102:sd.c          ****         Switch_18_Control_Write(CLOSE_ONE_CASE);
 103:sd.c          ****         
 104:sd.c          ****     }
 105:sd.c          ****     else if( (index>2) & (index<11)){
 106:sd.c          ****         if ( Switch_3_10_Control_Read() != ( CLOSE_ONE_CASE << (index - 3)) )
 107:sd.c          ****         {
 108:sd.c          ****             Switch_3_10_Control_Write(CLOSE_ONE_CASE << (index - 3));
 109:sd.c          ****             Switch_1_2_Control_Write(OPEN_ALL_CASE);
 110:sd.c          ****             Switch_11_12_Control_Write(OPEN_ALL_CASE);
 111:sd.c          ****             Switch_13_14_Control_Write(OPEN_ALL_CASE);
 112:sd.c          ****             Switch_15_Control_Write(OPEN_ALL_CASE);
 113:sd.c          ****             Switch_16_Control_Write(OPEN_ALL_CASE);
 114:sd.c          ****             Switch_17_Control_Write(OPEN_ALL_CASE);
 115:sd.c          ****             Switch_18_Control_Write(OPEN_ALL_CASE);
 116:sd.c          ****         }
 117:sd.c          ****     }
 118:sd.c          ****     else{
 119:sd.c          ****         Switch_1_2_Control_Write(OPEN_ALL_CASE);
 120:sd.c          ****         Switch_3_10_Control_Write(OPEN_ALL_CASE);
 121:sd.c          ****         Switch_11_12_Control_Write(OPEN_ALL_CASE);
 122:sd.c          ****         Switch_13_14_Control_Write(OPEN_ALL_CASE);
 123:sd.c          ****         Switch_15_Control_Write(OPEN_ALL_CASE);
 124:sd.c          ****         Switch_16_Control_Write(OPEN_ALL_CASE);
 125:sd.c          ****         Switch_17_Control_Write(OPEN_ALL_CASE);
 126:sd.c          ****         Switch_18_Control_Write(OPEN_ALL_CASE);
 127:sd.c          ****     }
 128:sd.c          **** 
 129:sd.c          **** }
 130:sd.c          **** 
 131:sd.c          **** void sd_open_all_case(){                                          //ÊâìÂºÄÊâÄÊúâÁÆ±‰Ωì(ËæìÂÖ•Á±ªÂûã
 132:sd.c          ****     Switch_1_2_Control_Write(OPEN_ALL_CASE);
 133:sd.c          ****         Switch_3_10_Control_Write(OPEN_ALL_CASE);
 134:sd.c          ****         Switch_11_12_Control_Write(OPEN_ALL_CASE);
 135:sd.c          ****         Switch_13_14_Control_Write(OPEN_ALL_CASE);
 136:sd.c          ****         Switch_15_Control_Write(OPEN_ALL_CASE);
 137:sd.c          ****         Switch_16_Control_Write(OPEN_ALL_CASE);
 138:sd.c          ****         Switch_17_Control_Write(OPEN_ALL_CASE);
 139:sd.c          ****         Switch_18_Control_Write(OPEN_ALL_CASE);
 140:sd.c          **** }
 141:sd.c          **** 
 142:sd.c          **** void sd_close_one_case(uint8 index){                              //ÂçïÁã¨ÂÖ≥Èó≠ÁÆ±‰ΩìÔºå‰∏éÂÖ∂‰ªñÁ
 143:sd.c          ****     if((index=='1') || (index=='2')){
 144:sd.c          ****         Switch_1_2_Control_Write((Switch_1_2_Control_Read() | (CLOSE_ONE_CASE<<(((int)index-1)))));
ARM GAS  C:\Users\DELL\AppData\Local\Temp\ccKNQBQ1.s 			page 4


 145:sd.c          ****     }
 146:sd.c          ****     else if((index==11) || (index==12)){
 147:sd.c          ****             Switch_11_12_Control_Write((Switch_11_12_Control_Read() | (CLOSE_ONE_CASE<<(index-11)))
 148:sd.c          ****    }
 149:sd.c          ****     else if((index==13) || (index==14)){
 150:sd.c          ****         Switch_13_14_Control_Write((Switch_13_14_Control_Read() | (CLOSE_ONE_CASE<<(index-13))));
 151:sd.c          ****    }
 152:sd.c          ****     else if(index==15){
 153:sd.c          ****         Switch_15_Control_Write(CLOSE_ONE_CASE);
 154:sd.c          ****    }
 155:sd.c          ****     else if(index==16){
 156:sd.c          ****         Switch_16_Control_Write(CLOSE_ONE_CASE);
 157:sd.c          ****    }
 158:sd.c          ****     else if(index==17){
 159:sd.c          ****         Switch_17_Control_Write(CLOSE_ONE_CASE);
 160:sd.c          ****    }
 161:sd.c          ****     else if(index==18){
 162:sd.c          ****         Switch_18_Control_Write(CLOSE_ONE_CASE);
 163:sd.c          ****    }
 164:sd.c          ****    else if( (index>2) & (index<11)){
 165:sd.c          **** 
 166:sd.c          ****             Switch_3_10_Control_Write((Switch_3_10_Control_Read() | (CLOSE_ONE_CASE<<(index-3))));
 167:sd.c          ****    } 
 168:sd.c          **** }
 169:sd.c          **** 
 170:sd.c          **** void sd_open_one_case(uint8 index){                              //ÂçïÁã¨ÊâìÂºÄÁÆ±‰ΩìÔºå‰∏éÂÖ∂‰ªñÁÆ
 171:sd.c          ****     if((index==1) || (index==2)){
 172:sd.c          ****         Switch_1_2_Control_Write(((Switch_1_2_Control_Read()) & (OPEN_ONE_CASE>>(index+5))));
 173:sd.c          ****     }
 174:sd.c          ****     else if((index==11) || (index==12)){
 175:sd.c          ****         Switch_11_12_Control_Write((Switch_11_12_Control_Read() & (OPEN_ONE_CASE>>(index-5))));
 176:sd.c          ****    }
 177:sd.c          ****     else if((index==13) || (index==14)){
 178:sd.c          ****         Switch_13_14_Control_Write((Switch_13_14_Control_Read() & (OPEN_ONE_CASE>>(index-7))));
 179:sd.c          ****    }
 180:sd.c          ****     else if(index==15){
 181:sd.c          ****         Switch_15_Control_Write(OPEN_ALL_CASE);
 182:sd.c          ****    }
 183:sd.c          ****     else if(index==16){
 184:sd.c          ****         Switch_16_Control_Write(OPEN_ALL_CASE);
 185:sd.c          ****    }
 186:sd.c          ****     else if(index==17){
 187:sd.c          ****         Switch_17_Control_Write(OPEN_ALL_CASE);
 188:sd.c          ****    }
 189:sd.c          ****     else if(index==18){
 190:sd.c          ****         Switch_18_Control_Write(OPEN_ALL_CASE);
 191:sd.c          ****    }
 192:sd.c          ****    else if( (index>2) & (index<11)){
 193:sd.c          **** 
 194:sd.c          ****             Switch_3_10_Control_Write((Switch_3_10_Control_Read() ^ (OPEN_ONE_CASE>>(index-2))));
 195:sd.c          ****    } 
 196:sd.c          **** }
 197:sd.c          **** */
 198:sd.c          **** 
 199:sd.c          **** void sd_open_one_case(char Index)                               //ÂçïÁã¨ÊéßÂà∂ÊâìÂºÄ1‰∏™ÁÆ±‰Ωì
 200:sd.c          **** {
  28              		.loc 1 200 0
ARM GAS  C:\Users\DELL\AppData\Local\Temp\ccKNQBQ1.s 			page 5


  29              		.cfi_startproc
  30              		@ args = 0, pretend = 0, frame = 0
  31              		@ frame_needed = 0, uses_anonymous_args = 0
  32              	.LVL0:
  33 0000 08B5     		push	{r3, lr}
  34              		.cfi_def_cfa_offset 8
  35              		.cfi_offset 3, -8
  36              		.cfi_offset 14, -4
 201:sd.c          ****     switch(Index)
  37              		.loc 1 201 0
  38 0002 3138     		subs	r0, r0, #49
  39              	.LVL1:
  40 0004 1928     		cmp	r0, #25
  41 0006 55D8     		bhi	.L1
  42 0008 DFE800F0 		tbb	[pc, r0]
  43              	.L4:
  44 000c 0D       		.byte	(.L3-.L4)/2
  45 000d 11       		.byte	(.L5-.L4)/2
  46 000e 15       		.byte	(.L6-.L4)/2
  47 000f 19       		.byte	(.L7-.L4)/2
  48 0010 1D       		.byte	(.L8-.L4)/2
  49 0011 21       		.byte	(.L9-.L4)/2
  50 0012 25       		.byte	(.L10-.L4)/2
  51 0013 29       		.byte	(.L11-.L4)/2
  52 0014 2D       		.byte	(.L12-.L4)/2
  53 0015 54       		.byte	(.L1-.L4)/2
  54 0016 54       		.byte	(.L1-.L4)/2
  55 0017 54       		.byte	(.L1-.L4)/2
  56 0018 54       		.byte	(.L1-.L4)/2
  57 0019 54       		.byte	(.L1-.L4)/2
  58 001a 54       		.byte	(.L1-.L4)/2
  59 001b 54       		.byte	(.L1-.L4)/2
  60 001c 31       		.byte	(.L13-.L4)/2
  61 001d 35       		.byte	(.L14-.L4)/2
  62 001e 39       		.byte	(.L15-.L4)/2
  63 001f 3D       		.byte	(.L16-.L4)/2
  64 0020 54       		.byte	(.L1-.L4)/2
  65 0021 41       		.byte	(.L17-.L4)/2
  66 0022 45       		.byte	(.L18-.L4)/2
  67 0023 49       		.byte	(.L19-.L4)/2
  68 0024 4D       		.byte	(.L20-.L4)/2
  69 0025 51       		.byte	(.L21-.L4)/2
  70              		.p2align 1
  71              	.L3:
 202:sd.c          ****     {
 203:sd.c          ****         case '1': 
 204:sd.c          ****             Switch_1_Control_Write(0);
  72              		.loc 1 204 0
  73 0026 0020     		movs	r0, #0
  74 0028 FFF7FEFF 		bl	Switch_1_Control_Write
  75              	.LVL2:
 205:sd.c          ****             break;
  76              		.loc 1 205 0
  77 002c 08BD     		pop	{r3, pc}
  78              	.L5:
 206:sd.c          ****          case '2': 
 207:sd.c          ****             Switch_2_Control_Write(0);
ARM GAS  C:\Users\DELL\AppData\Local\Temp\ccKNQBQ1.s 			page 6


  79              		.loc 1 207 0
  80 002e 0020     		movs	r0, #0
  81 0030 FFF7FEFF 		bl	Switch_2_Control_Write
  82              	.LVL3:
 208:sd.c          ****             break;
  83              		.loc 1 208 0
  84 0034 08BD     		pop	{r3, pc}
  85              	.L6:
 209:sd.c          ****          case '3': 
 210:sd.c          ****             Switch_3_Control_Write(0);
  86              		.loc 1 210 0
  87 0036 0020     		movs	r0, #0
  88 0038 FFF7FEFF 		bl	Switch_3_Control_Write
  89              	.LVL4:
 211:sd.c          ****             break;
  90              		.loc 1 211 0
  91 003c 08BD     		pop	{r3, pc}
  92              	.L7:
 212:sd.c          ****          case '4': 
 213:sd.c          ****             Switch_4_Control_Write(0);
  93              		.loc 1 213 0
  94 003e 0020     		movs	r0, #0
  95 0040 FFF7FEFF 		bl	Switch_4_Control_Write
  96              	.LVL5:
 214:sd.c          ****             break;
  97              		.loc 1 214 0
  98 0044 08BD     		pop	{r3, pc}
  99              	.L8:
 215:sd.c          ****          case '5': 
 216:sd.c          ****             Switch_5_Control_Write(0);
 100              		.loc 1 216 0
 101 0046 0020     		movs	r0, #0
 102 0048 FFF7FEFF 		bl	Switch_5_Control_Write
 103              	.LVL6:
 217:sd.c          ****             break;
 104              		.loc 1 217 0
 105 004c 08BD     		pop	{r3, pc}
 106              	.L9:
 218:sd.c          ****          case '6': 
 219:sd.c          ****             Switch_6_Control_Write(0);
 107              		.loc 1 219 0
 108 004e 0020     		movs	r0, #0
 109 0050 FFF7FEFF 		bl	Switch_6_Control_Write
 110              	.LVL7:
 220:sd.c          ****             break;
 111              		.loc 1 220 0
 112 0054 08BD     		pop	{r3, pc}
 113              	.L10:
 221:sd.c          ****          case '7': 
 222:sd.c          ****             Switch_7_Control_Write(0);
 114              		.loc 1 222 0
 115 0056 0020     		movs	r0, #0
 116 0058 FFF7FEFF 		bl	Switch_7_Control_Write
 117              	.LVL8:
 223:sd.c          ****             break;
 118              		.loc 1 223 0
 119 005c 08BD     		pop	{r3, pc}
ARM GAS  C:\Users\DELL\AppData\Local\Temp\ccKNQBQ1.s 			page 7


 120              	.L11:
 224:sd.c          ****          case '8': 
 225:sd.c          ****             Switch_8_Control_Write(0);
 121              		.loc 1 225 0
 122 005e 0020     		movs	r0, #0
 123 0060 FFF7FEFF 		bl	Switch_8_Control_Write
 124              	.LVL9:
 226:sd.c          ****             break;
 125              		.loc 1 226 0
 126 0064 08BD     		pop	{r3, pc}
 127              	.L12:
 227:sd.c          ****          case '9': 
 228:sd.c          ****             Switch_9_Control_Write(0);
 128              		.loc 1 228 0
 129 0066 0020     		movs	r0, #0
 130 0068 FFF7FEFF 		bl	Switch_9_Control_Write
 131              	.LVL10:
 229:sd.c          ****             break;
 132              		.loc 1 229 0
 133 006c 08BD     		pop	{r3, pc}
 134              	.L13:
 230:sd.c          ****          case 'A': 
 231:sd.c          ****             Switch_10_Control_Write(0);
 135              		.loc 1 231 0
 136 006e 0020     		movs	r0, #0
 137 0070 FFF7FEFF 		bl	Switch_10_Control_Write
 138              	.LVL11:
 232:sd.c          ****             break;
 139              		.loc 1 232 0
 140 0074 08BD     		pop	{r3, pc}
 141              	.L14:
 233:sd.c          ****          case 'B': 
 234:sd.c          ****             Switch_11_Control_Write(0);
 142              		.loc 1 234 0
 143 0076 0020     		movs	r0, #0
 144 0078 FFF7FEFF 		bl	Switch_11_Control_Write
 145              	.LVL12:
 235:sd.c          ****             break;
 146              		.loc 1 235 0
 147 007c 08BD     		pop	{r3, pc}
 148              	.L15:
 236:sd.c          ****          case 'C': 
 237:sd.c          ****             Switch_12_Control_Write(0);
 149              		.loc 1 237 0
 150 007e 0020     		movs	r0, #0
 151 0080 FFF7FEFF 		bl	Switch_12_Control_Write
 152              	.LVL13:
 238:sd.c          ****             break;
 153              		.loc 1 238 0
 154 0084 08BD     		pop	{r3, pc}
 155              	.L16:
 239:sd.c          ****          case 'D': 
 240:sd.c          ****             Switch_13_Control_Write(0);
 156              		.loc 1 240 0
 157 0086 0020     		movs	r0, #0
 158 0088 FFF7FEFF 		bl	Switch_13_Control_Write
 159              	.LVL14:
ARM GAS  C:\Users\DELL\AppData\Local\Temp\ccKNQBQ1.s 			page 8


 241:sd.c          ****             break;
 160              		.loc 1 241 0
 161 008c 08BD     		pop	{r3, pc}
 162              	.L17:
 242:sd.c          ****          case 'F': 
 243:sd.c          ****             Switch_14_Control_Write(0);
 163              		.loc 1 243 0
 164 008e 0020     		movs	r0, #0
 165 0090 FFF7FEFF 		bl	Switch_14_Control_Write
 166              	.LVL15:
 244:sd.c          ****             break;
 167              		.loc 1 244 0
 168 0094 08BD     		pop	{r3, pc}
 169              	.L18:
 245:sd.c          ****          case 'G': 
 246:sd.c          ****             Switch_15_Control_Write(0);
 170              		.loc 1 246 0
 171 0096 0020     		movs	r0, #0
 172 0098 FFF7FEFF 		bl	Switch_15_Control_Write
 173              	.LVL16:
 247:sd.c          ****             break; 
 174              		.loc 1 247 0
 175 009c 08BD     		pop	{r3, pc}
 176              	.L19:
 248:sd.c          ****          case 'H': 
 249:sd.c          ****             Switch_16_Control_Write(0);
 177              		.loc 1 249 0
 178 009e 0020     		movs	r0, #0
 179 00a0 FFF7FEFF 		bl	Switch_16_Control_Write
 180              	.LVL17:
 250:sd.c          ****             break;
 181              		.loc 1 250 0
 182 00a4 08BD     		pop	{r3, pc}
 183              	.L20:
 251:sd.c          ****          case 'I': 
 252:sd.c          ****             Switch_17_Control_Write(0);
 184              		.loc 1 252 0
 185 00a6 0020     		movs	r0, #0
 186 00a8 FFF7FEFF 		bl	Switch_17_Control_Write
 187              	.LVL18:
 253:sd.c          ****             break;
 188              		.loc 1 253 0
 189 00ac 08BD     		pop	{r3, pc}
 190              	.L21:
 254:sd.c          ****          case 'J': 
 255:sd.c          ****             Switch_18_Control_Write(0);
 191              		.loc 1 255 0
 192 00ae 0020     		movs	r0, #0
 193 00b0 FFF7FEFF 		bl	Switch_18_Control_Write
 194              	.LVL19:
 195              	.L1:
 196 00b4 08BD     		pop	{r3, pc}
 197              		.cfi_endproc
 198              	.LFE64:
 199              		.size	sd_open_one_case, .-sd_open_one_case
 200 00b6 00BF     		.section	.text.sd_close_one_case,"ax",%progbits
 201              		.align	2
ARM GAS  C:\Users\DELL\AppData\Local\Temp\ccKNQBQ1.s 			page 9


 202              		.global	sd_close_one_case
 203              		.thumb
 204              		.thumb_func
 205              		.type	sd_close_one_case, %function
 206              	sd_close_one_case:
 207              	.LFB65:
 256:sd.c          ****             break;
 257:sd.c          ****     }
 258:sd.c          **** }
 259:sd.c          **** 
 260:sd.c          **** void sd_close_one_case(char Index)                                //ÂçïÁã¨ÊéßÂà∂ÂÖ≥Èó≠1‰∏™ÁÆ±‰Ωì
 261:sd.c          **** {
 208              		.loc 1 261 0
 209              		.cfi_startproc
 210              		@ args = 0, pretend = 0, frame = 0
 211              		@ frame_needed = 0, uses_anonymous_args = 0
 212              	.LVL20:
 213 0000 08B5     		push	{r3, lr}
 214              		.cfi_def_cfa_offset 8
 215              		.cfi_offset 3, -8
 216              		.cfi_offset 14, -4
 262:sd.c          ****     switch(Index)
 217              		.loc 1 262 0
 218 0002 3138     		subs	r0, r0, #49
 219              	.LVL21:
 220 0004 1828     		cmp	r0, #24
 221 0006 55D8     		bhi	.L23
 222 0008 DFE800F0 		tbb	[pc, r0]
 223              	.L26:
 224 000c 0D       		.byte	(.L25-.L26)/2
 225 000d 11       		.byte	(.L27-.L26)/2
 226 000e 15       		.byte	(.L28-.L26)/2
 227 000f 19       		.byte	(.L29-.L26)/2
 228 0010 1D       		.byte	(.L30-.L26)/2
 229 0011 21       		.byte	(.L31-.L26)/2
 230 0012 25       		.byte	(.L32-.L26)/2
 231 0013 29       		.byte	(.L33-.L26)/2
 232 0014 2D       		.byte	(.L34-.L26)/2
 233 0015 54       		.byte	(.L23-.L26)/2
 234 0016 54       		.byte	(.L23-.L26)/2
 235 0017 54       		.byte	(.L23-.L26)/2
 236 0018 54       		.byte	(.L23-.L26)/2
 237 0019 54       		.byte	(.L23-.L26)/2
 238 001a 54       		.byte	(.L23-.L26)/2
 239 001b 54       		.byte	(.L23-.L26)/2
 240 001c 31       		.byte	(.L35-.L26)/2
 241 001d 35       		.byte	(.L36-.L26)/2
 242 001e 39       		.byte	(.L37-.L26)/2
 243 001f 3D       		.byte	(.L38-.L26)/2
 244 0020 41       		.byte	(.L39-.L26)/2
 245 0021 45       		.byte	(.L40-.L26)/2
 246 0022 49       		.byte	(.L41-.L26)/2
 247 0023 4D       		.byte	(.L42-.L26)/2
 248 0024 51       		.byte	(.L43-.L26)/2
 249 0025 00       		.p2align 1
 250              	.L25:
 263:sd.c          ****     {
ARM GAS  C:\Users\DELL\AppData\Local\Temp\ccKNQBQ1.s 			page 10


 264:sd.c          ****          case '1': 
 265:sd.c          ****             Switch_1_Control_Write(1);
 251              		.loc 1 265 0
 252 0026 0120     		movs	r0, #1
 253 0028 FFF7FEFF 		bl	Switch_1_Control_Write
 254              	.LVL22:
 266:sd.c          ****             break;
 255              		.loc 1 266 0
 256 002c 08BD     		pop	{r3, pc}
 257              	.L27:
 267:sd.c          ****          case '2': 
 268:sd.c          ****             Switch_2_Control_Write(1);
 258              		.loc 1 268 0
 259 002e 0120     		movs	r0, #1
 260 0030 FFF7FEFF 		bl	Switch_2_Control_Write
 261              	.LVL23:
 269:sd.c          ****             break;
 262              		.loc 1 269 0
 263 0034 08BD     		pop	{r3, pc}
 264              	.L28:
 270:sd.c          ****          case '3': 
 271:sd.c          ****             Switch_3_Control_Write(1);
 265              		.loc 1 271 0
 266 0036 0120     		movs	r0, #1
 267 0038 FFF7FEFF 		bl	Switch_3_Control_Write
 268              	.LVL24:
 272:sd.c          ****             break;
 269              		.loc 1 272 0
 270 003c 08BD     		pop	{r3, pc}
 271              	.L29:
 273:sd.c          ****          case '4': 
 274:sd.c          ****             Switch_4_Control_Write(1);
 272              		.loc 1 274 0
 273 003e 0120     		movs	r0, #1
 274 0040 FFF7FEFF 		bl	Switch_4_Control_Write
 275              	.LVL25:
 275:sd.c          ****             break;
 276              		.loc 1 275 0
 277 0044 08BD     		pop	{r3, pc}
 278              	.L30:
 276:sd.c          ****          case '5': 
 277:sd.c          ****             Switch_5_Control_Write(1);
 279              		.loc 1 277 0
 280 0046 0120     		movs	r0, #1
 281 0048 FFF7FEFF 		bl	Switch_5_Control_Write
 282              	.LVL26:
 278:sd.c          ****             break;
 283              		.loc 1 278 0
 284 004c 08BD     		pop	{r3, pc}
 285              	.L31:
 279:sd.c          ****          case '6': 
 280:sd.c          ****             Switch_6_Control_Write(1);
 286              		.loc 1 280 0
 287 004e 0120     		movs	r0, #1
 288 0050 FFF7FEFF 		bl	Switch_6_Control_Write
 289              	.LVL27:
 281:sd.c          ****             break;
ARM GAS  C:\Users\DELL\AppData\Local\Temp\ccKNQBQ1.s 			page 11


 290              		.loc 1 281 0
 291 0054 08BD     		pop	{r3, pc}
 292              	.L32:
 282:sd.c          ****          case '7': 
 283:sd.c          ****             Switch_7_Control_Write(1);
 293              		.loc 1 283 0
 294 0056 0120     		movs	r0, #1
 295 0058 FFF7FEFF 		bl	Switch_7_Control_Write
 296              	.LVL28:
 284:sd.c          ****             break;
 297              		.loc 1 284 0
 298 005c 08BD     		pop	{r3, pc}
 299              	.L33:
 285:sd.c          ****          case '8': 
 286:sd.c          ****             Switch_8_Control_Write(1);
 300              		.loc 1 286 0
 301 005e 0120     		movs	r0, #1
 302 0060 FFF7FEFF 		bl	Switch_8_Control_Write
 303              	.LVL29:
 287:sd.c          ****             break;
 304              		.loc 1 287 0
 305 0064 08BD     		pop	{r3, pc}
 306              	.L34:
 288:sd.c          ****          case '9': 
 289:sd.c          ****             Switch_9_Control_Write(1);
 307              		.loc 1 289 0
 308 0066 0120     		movs	r0, #1
 309 0068 FFF7FEFF 		bl	Switch_9_Control_Write
 310              	.LVL30:
 290:sd.c          ****             break;
 311              		.loc 1 290 0
 312 006c 08BD     		pop	{r3, pc}
 313              	.L35:
 291:sd.c          ****          case 'A': 
 292:sd.c          ****             Switch_10_Control_Write(1);
 314              		.loc 1 292 0
 315 006e 0120     		movs	r0, #1
 316 0070 FFF7FEFF 		bl	Switch_10_Control_Write
 317              	.LVL31:
 293:sd.c          ****             break;
 318              		.loc 1 293 0
 319 0074 08BD     		pop	{r3, pc}
 320              	.L36:
 294:sd.c          ****          case 'B': 
 295:sd.c          ****             Switch_11_Control_Write(1);
 321              		.loc 1 295 0
 322 0076 0120     		movs	r0, #1
 323 0078 FFF7FEFF 		bl	Switch_11_Control_Write
 324              	.LVL32:
 296:sd.c          ****             break;
 325              		.loc 1 296 0
 326 007c 08BD     		pop	{r3, pc}
 327              	.L37:
 297:sd.c          ****          case 'C': 
 298:sd.c          ****             Switch_12_Control_Write(1);
 328              		.loc 1 298 0
 329 007e 0120     		movs	r0, #1
ARM GAS  C:\Users\DELL\AppData\Local\Temp\ccKNQBQ1.s 			page 12


 330 0080 FFF7FEFF 		bl	Switch_12_Control_Write
 331              	.LVL33:
 299:sd.c          ****             break;
 332              		.loc 1 299 0
 333 0084 08BD     		pop	{r3, pc}
 334              	.L38:
 300:sd.c          ****          case 'D': 
 301:sd.c          ****             Switch_13_Control_Write(1);
 335              		.loc 1 301 0
 336 0086 0120     		movs	r0, #1
 337 0088 FFF7FEFF 		bl	Switch_13_Control_Write
 338              	.LVL34:
 302:sd.c          ****             break;
 339              		.loc 1 302 0
 340 008c 08BD     		pop	{r3, pc}
 341              	.L39:
 303:sd.c          ****          case 'E': 
 304:sd.c          ****             Switch_14_Control_Write(1);
 342              		.loc 1 304 0
 343 008e 0120     		movs	r0, #1
 344 0090 FFF7FEFF 		bl	Switch_14_Control_Write
 345              	.LVL35:
 305:sd.c          ****             break;
 346              		.loc 1 305 0
 347 0094 08BD     		pop	{r3, pc}
 348              	.L40:
 306:sd.c          ****          case 'F': 
 307:sd.c          ****             Switch_15_Control_Write(1);
 349              		.loc 1 307 0
 350 0096 0120     		movs	r0, #1
 351 0098 FFF7FEFF 		bl	Switch_15_Control_Write
 352              	.LVL36:
 308:sd.c          ****             break; 
 353              		.loc 1 308 0
 354 009c 08BD     		pop	{r3, pc}
 355              	.L41:
 309:sd.c          ****          case 'G': 
 310:sd.c          ****             Switch_16_Control_Write(1);
 356              		.loc 1 310 0
 357 009e 0120     		movs	r0, #1
 358 00a0 FFF7FEFF 		bl	Switch_16_Control_Write
 359              	.LVL37:
 311:sd.c          ****             break;
 360              		.loc 1 311 0
 361 00a4 08BD     		pop	{r3, pc}
 362              	.L42:
 312:sd.c          ****          case 'H': 
 313:sd.c          ****             Switch_17_Control_Write(1);
 363              		.loc 1 313 0
 364 00a6 0120     		movs	r0, #1
 365 00a8 FFF7FEFF 		bl	Switch_17_Control_Write
 366              	.LVL38:
 314:sd.c          ****             break;
 367              		.loc 1 314 0
 368 00ac 08BD     		pop	{r3, pc}
 369              	.L43:
 315:sd.c          ****          case 'I': 
ARM GAS  C:\Users\DELL\AppData\Local\Temp\ccKNQBQ1.s 			page 13


 316:sd.c          ****             Switch_18_Control_Write(1);
 370              		.loc 1 316 0
 371 00ae 0120     		movs	r0, #1
 372 00b0 FFF7FEFF 		bl	Switch_18_Control_Write
 373              	.LVL39:
 374              	.L23:
 375 00b4 08BD     		pop	{r3, pc}
 376              		.cfi_endproc
 377              	.LFE65:
 378              		.size	sd_close_one_case, .-sd_close_one_case
 379 00b6 00BF     		.section	.text.sd_open_all_case,"ax",%progbits
 380              		.align	2
 381              		.global	sd_open_all_case
 382              		.thumb
 383              		.thumb_func
 384              		.type	sd_open_all_case, %function
 385              	sd_open_all_case:
 386              	.LFB66:
 317:sd.c          ****             break;
 318:sd.c          ****     }
 319:sd.c          **** }
 320:sd.c          **** void sd_open_all_case()//ÊâìÂºÄÊâÄÊúâÁÆ±‰Ωì
 321:sd.c          **** {
 387              		.loc 1 321 0
 388              		.cfi_startproc
 389              		@ args = 0, pretend = 0, frame = 0
 390              		@ frame_needed = 0, uses_anonymous_args = 0
 391 0000 08B5     		push	{r3, lr}
 392              		.cfi_def_cfa_offset 8
 393              		.cfi_offset 3, -8
 394              		.cfi_offset 14, -4
 322:sd.c          ****     Switch_1_Control_Write(0);
 395              		.loc 1 322 0
 396 0002 0020     		movs	r0, #0
 397 0004 FFF7FEFF 		bl	Switch_1_Control_Write
 398              	.LVL40:
 323:sd.c          ****     Switch_2_Control_Write(0);
 399              		.loc 1 323 0
 400 0008 0020     		movs	r0, #0
 401 000a FFF7FEFF 		bl	Switch_2_Control_Write
 402              	.LVL41:
 324:sd.c          ****     Switch_3_Control_Write(0);
 403              		.loc 1 324 0
 404 000e 0020     		movs	r0, #0
 405 0010 FFF7FEFF 		bl	Switch_3_Control_Write
 406              	.LVL42:
 325:sd.c          ****     Switch_4_Control_Write(0);
 407              		.loc 1 325 0
 408 0014 0020     		movs	r0, #0
 409 0016 FFF7FEFF 		bl	Switch_4_Control_Write
 410              	.LVL43:
 326:sd.c          ****     Switch_5_Control_Write(0);
 411              		.loc 1 326 0
 412 001a 0020     		movs	r0, #0
 413 001c FFF7FEFF 		bl	Switch_5_Control_Write
 414              	.LVL44:
 327:sd.c          ****     Switch_6_Control_Write(0);  
ARM GAS  C:\Users\DELL\AppData\Local\Temp\ccKNQBQ1.s 			page 14


 415              		.loc 1 327 0
 416 0020 0020     		movs	r0, #0
 417 0022 FFF7FEFF 		bl	Switch_6_Control_Write
 418              	.LVL45:
 328:sd.c          ****     Switch_7_Control_Write(0);
 419              		.loc 1 328 0
 420 0026 0020     		movs	r0, #0
 421 0028 FFF7FEFF 		bl	Switch_7_Control_Write
 422              	.LVL46:
 329:sd.c          ****     Switch_8_Control_Write(0);
 423              		.loc 1 329 0
 424 002c 0020     		movs	r0, #0
 425 002e FFF7FEFF 		bl	Switch_8_Control_Write
 426              	.LVL47:
 330:sd.c          ****     Switch_9_Control_Write(0);
 427              		.loc 1 330 0
 428 0032 0020     		movs	r0, #0
 429 0034 FFF7FEFF 		bl	Switch_9_Control_Write
 430              	.LVL48:
 331:sd.c          ****     Switch_10_Control_Write(0);
 431              		.loc 1 331 0
 432 0038 0020     		movs	r0, #0
 433 003a FFF7FEFF 		bl	Switch_10_Control_Write
 434              	.LVL49:
 332:sd.c          ****     Switch_11_Control_Write(0);
 435              		.loc 1 332 0
 436 003e 0020     		movs	r0, #0
 437 0040 FFF7FEFF 		bl	Switch_11_Control_Write
 438              	.LVL50:
 333:sd.c          ****     Switch_12_Control_Write(0);
 439              		.loc 1 333 0
 440 0044 0020     		movs	r0, #0
 441 0046 FFF7FEFF 		bl	Switch_12_Control_Write
 442              	.LVL51:
 334:sd.c          ****     Switch_13_Control_Write(0);
 443              		.loc 1 334 0
 444 004a 0020     		movs	r0, #0
 445 004c FFF7FEFF 		bl	Switch_13_Control_Write
 446              	.LVL52:
 335:sd.c          ****     Switch_14_Control_Write(0);
 447              		.loc 1 335 0
 448 0050 0020     		movs	r0, #0
 449 0052 FFF7FEFF 		bl	Switch_14_Control_Write
 450              	.LVL53:
 336:sd.c          ****     Switch_15_Control_Write(0);
 451              		.loc 1 336 0
 452 0056 0020     		movs	r0, #0
 453 0058 FFF7FEFF 		bl	Switch_15_Control_Write
 454              	.LVL54:
 337:sd.c          ****     Switch_16_Control_Write(0);
 455              		.loc 1 337 0
 456 005c 0020     		movs	r0, #0
 457 005e FFF7FEFF 		bl	Switch_16_Control_Write
 458              	.LVL55:
 338:sd.c          ****     Switch_17_Control_Write(0);
 459              		.loc 1 338 0
 460 0062 0020     		movs	r0, #0
ARM GAS  C:\Users\DELL\AppData\Local\Temp\ccKNQBQ1.s 			page 15


 461 0064 FFF7FEFF 		bl	Switch_17_Control_Write
 462              	.LVL56:
 339:sd.c          ****     Switch_18_Control_Write(0);
 463              		.loc 1 339 0
 464 0068 0020     		movs	r0, #0
 465 006a FFF7FEFF 		bl	Switch_18_Control_Write
 466              	.LVL57:
 467 006e 08BD     		pop	{r3, pc}
 468              		.cfi_endproc
 469              	.LFE66:
 470              		.size	sd_open_all_case, .-sd_open_all_case
 471              		.text
 472              	.Letext0:
 473              		.file 2 "c:\\program files (x86)\\cypress\\psoc creator\\4.4\\psoc creator\\import\\gnu\\arm\\5.4.
 474              		.file 3 "c:\\program files (x86)\\cypress\\psoc creator\\4.4\\psoc creator\\import\\gnu\\arm\\5.4.
 475              		.file 4 "Generated_Source\\PSoC5/Switch_1_Control.h"
 476              		.file 5 "Generated_Source\\PSoC5/Switch_2_Control.h"
 477              		.file 6 "Generated_Source\\PSoC5/Switch_3_Control.h"
 478              		.file 7 "Generated_Source\\PSoC5/Switch_4_Control.h"
 479              		.file 8 "Generated_Source\\PSoC5/Switch_5_Control.h"
 480              		.file 9 "Generated_Source\\PSoC5/Switch_6_Control.h"
 481              		.file 10 "Generated_Source\\PSoC5/Switch_7_Control.h"
 482              		.file 11 "Generated_Source\\PSoC5/Switch_8_Control.h"
 483              		.file 12 "Generated_Source\\PSoC5/Switch_9_Control.h"
 484              		.file 13 "Generated_Source\\PSoC5/Switch_10_Control.h"
 485              		.file 14 "Generated_Source\\PSoC5/Switch_11_Control.h"
 486              		.file 15 "Generated_Source\\PSoC5/Switch_12_Control.h"
 487              		.file 16 "Generated_Source\\PSoC5/Switch_13_Control.h"
 488              		.file 17 "Generated_Source\\PSoC5/Switch_14_Control.h"
 489              		.file 18 "Generated_Source\\PSoC5/Switch_15_Control.h"
 490              		.file 19 "Generated_Source\\PSoC5/Switch_16_Control.h"
 491              		.file 20 "Generated_Source\\PSoC5/Switch_17_Control.h"
 492              		.file 21 "Generated_Source\\PSoC5/Switch_18_Control.h"
 493              		.file 22 "Generated_Source\\PSoC5/core_cm3.h"